target datalayout = "e-m:e-p270:32:32-p271:32:32-p272:64:64-i64:64-i128:128-f80:128-n8:16:32:64-S128"
target triple = "x86_64-pc-linux-gnu"

@stable = internal global ptr null, align 8

; Function Attrs: inlinehint nounwind uwtable
define internal ptr @ossl_check_ASN1_STRING_TABLE_freefunc_type(ptr noundef %0) #5 {
  %2 = alloca ptr, align 8
  store ptr %0, ptr %2, align 8, !tbaa !27
  %3 = load ptr, ptr %2, align 8, !tbaa !27
  ret ptr %3
}

; Function Attrs: inlinehint nounwind uwtable
define internal ptr @ossl_check_ASN1_STRING_TABLE_sk_type(ptr noundef %0) #5 {
  %2 = alloca ptr, align 8
  store ptr %0, ptr %2, align 8, !tbaa !25
  %3 = load ptr, ptr %2, align 8, !tbaa !25
  ret ptr %3
}

; Function Attrs: nounwind uwtable
define void @ASN1_STRING_TABLE_cleanup() #0 {
  %1 = alloca ptr, align 8
  %2 = alloca i32, align 4
  call void @llvm.lifetime.start.p0(i64 8, ptr %1) #6
  %3 = load ptr, ptr @stable, align 8, !tbaa !25
  store ptr %3, ptr %1, align 8, !tbaa !25
  %4 = load ptr, ptr %1, align 8, !tbaa !25
  %5 = icmp eq ptr %4, null
  br i1 %5, label %6, label %7

6:                                                ; preds = %0
  store i32 1, ptr %2, align 4
  br label %11

7:                                                ; preds = %0
  store ptr null, ptr @stable, align 8, !tbaa !25
  %8 = load ptr, ptr %1, align 8, !tbaa !25
  %9 = call ptr @ossl_check_ASN1_STRING_TABLE_sk_type(ptr noundef %8)
  %10 = call ptr @ossl_check_ASN1_STRING_TABLE_freefunc_type(ptr noundef @st_free)
  call void @OPENSSL_sk_pop_free(ptr noundef %9, ptr noundef %10)
  store i32 0, ptr %2, align 4
  br label %11

11:                                               ; preds = %7, %6
  call void @llvm.lifetime.end.p0(i64 8, ptr %1) #6
  %12 = load i32, ptr %2, align 4
  switch i32 %12, label %14 [
    i32 0, label %13
    i32 1, label %13
  ]

13:                                               ; preds = %11, %11
  ret void

14:                                               ; preds = %11
  unreachable
}