; Function Attrs: nounwind uwtable
define void @ASN1_STRING_TABLE_cleanup() local_unnamed_addr #6 {
  %1 = load ptr, ptr @stable, align 8, !tbaa !16
  %2 = icmp eq ptr %1, null
  br i1 %2, label %4, label %3

3:                                                ; preds = %0
  store ptr null, ptr @stable, align 8, !tbaa !16
  tail call void @OPENSSL_sk_pop_free(ptr noundef nonnull %1, ptr noundef nonnull @st_free) #11
  br label %4

4:                                                ; preds = %0, %3
  ret void
}